target datalayout = "e-m:e-p270:32:32-p271:32:32-p272:64:64-i64:64-i128:128-f80:128-n8:16:32:64-S128"
target triple = "x86_64-pc-linux-gnu"

%struct.H5R_ref_priv_t = type { %union.anon, i64, i32, i8, i8, i8 }
%union.anon = type { %struct.H5R_ref_priv_reg_t }
%struct.H5R_ref_priv_reg_t = type { %struct.H5R_ref_priv_obj_t, ptr }
%struct.H5R_ref_priv_obj_t = type { %struct.H5O_token_t, ptr }
%struct.H5O_token_t = type { [16 x i8] }

@H5R_init_g = global i8 0, align 1
@H5_libterm_g = external global i8, align 1
@.str = private unnamed_addr constant [100 x i8] c"generated/home/dtcxzyw/WorkSpace/Projects/compilers/llvm-opt-benchmark/bench/hdf5/hdf5/src/H5Rint.c\00", align 1
@H5E_REFERENCE_g = external global i64, align 8
@H5E_CANTDEC_g = external global i64, align 8
@.str.9 = private unnamed_addr constant [32 x i8] c"decrementing location ID failed\00", align 1
@__func__.H5R__set_loc_id = private unnamed_addr constant [16 x i8] c"H5R__set_loc_id\00", align 1
@H5E_CANTINC_g = external global i64, align 8
@.str.10 = private unnamed_addr constant [32 x i8] c"incrementing location ID failed\00", align 1

; Function Attrs: nounwind uwtable
define i32 @H5R__set_loc_id(ptr noundef %0, i64 noundef %1, i1 noundef zeroext %2, i1 noundef zeroext %3) #0 {
  %5 = alloca ptr, align 8
  %6 = alloca i64, align 8
  %7 = alloca i8, align 1
  %8 = alloca i8, align 1
  %9 = alloca i32, align 4
  %10 = alloca i8, align 1
  store ptr %0, ptr %5, align 8, !tbaa !14
  store i64 %1, ptr %6, align 8, !tbaa !12
  %11 = zext i1 %2 to i8
  store i8 %11, ptr %7, align 1, !tbaa !3
  %12 = zext i1 %3 to i8
  store i8 %12, ptr %8, align 1, !tbaa !3
  call void @llvm.lifetime.start.p0(i64 4, ptr %9) #9
  store i32 0, ptr %9, align 4, !tbaa !16
  call void @llvm.lifetime.start.p0(i64 1, ptr %10) #9
  store i8 0, ptr %10, align 1, !tbaa !3
  %13 = load i8, ptr @H5R_init_g, align 1, !tbaa !3, !range !7, !noundef !8
  %14 = trunc i8 %13 to i1
  br i1 %14, label %19, label %15

15:                                               ; preds = %4
  %16 = load i8, ptr @H5_libterm_g, align 1, !tbaa !3, !range !7, !noundef !8
  %17 = trunc i8 %16 to i1
  %18 = xor i1 %17, true
  br label %19

19:                                               ; preds = %15, %4
  %20 = phi i1 [ true, %4 ], [ %18, %15 ]
  %21 = xor i1 %20, true
  %22 = xor i1 %21, true
  %23 = zext i1 %22 to i32
  %24 = sext i32 %23 to i64
  %25 = call i64 @llvm.expect.i64(i64 %24, i64 1)
  %26 = icmp ne i64 %25, 0
  br i1 %26, label %27, label %130

27:                                               ; preds = %19
  %28 = load ptr, ptr %5, align 8, !tbaa !14
  %29 = getelementptr inbounds nuw %struct.H5R_ref_priv_t, ptr %28, i32 0, i32 1
  %30 = load i64, ptr %29, align 8, !tbaa !19
  %31 = icmp ne i64 %30, -1
  br i1 %31, label %32, label %90

32:                                               ; preds = %27
  %33 = load ptr, ptr %5, align 8, !tbaa !14
  %34 = getelementptr inbounds nuw %struct.H5R_ref_priv_t, ptr %33, i32 0, i32 5
  %35 = load i8, ptr %34, align 2, !tbaa !30, !range !7, !noundef !8
  %36 = trunc i8 %35 to i1
  br i1 %36, label %37, label %63

37:                                               ; preds = %32
  %38 = load ptr, ptr %5, align 8, !tbaa !14
  %39 = getelementptr inbounds nuw %struct.H5R_ref_priv_t, ptr %38, i32 0, i32 1
  %40 = load i64, ptr %39, align 8, !tbaa !19
  %41 = call i32 @H5I_dec_app_ref(i64 noundef %40)
  %42 = icmp slt i32 %41, 0
  br i1 %42, label %43, label %62

43:                                               ; preds = %37
  br label %44

44:                                               ; preds = %43
  br label %45

45:                                               ; preds = %44
  br label %46

46:                                               ; preds = %45
  %47 = load i64, ptr @H5E_REFERENCE_g, align 8, !tbaa !12
  %48 = load i64, ptr @H5E_CANTDEC_g, align 8, !tbaa !12
  %49 = call i32 (ptr, ptr, i32, i64, i64, ptr, ...) @H5E_printf_stack(ptr noundef @.str, ptr noundef @__func__.H5R__set_loc_id, i32 noundef 403, i64 noundef %47, i64 noundef %48, ptr noundef @.str.9)
  br label %50

50:                                               ; preds = %46
  br label %51

51:                                               ; preds = %50
  store i8 1, ptr %10, align 1, !tbaa !3
  %52 = load i8, ptr %10, align 1, !tbaa !3, !range !7, !noundef !8
  %53 = trunc i8 %52 to i1
  %54 = zext i1 %53 to i8
  store i8 %54, ptr %10, align 1, !tbaa !3
  br label %55

55:                                               ; preds = %51
  br label %56

56:                                               ; preds = %55
  br label %57

57:                                               ; preds = %56
  store i32 -1, ptr %9, align 4, !tbaa !16
  br label %129

58:                                               ; No predecessors!
  br label %59

59:                                               ; preds = %58
  br label %60

60:                                               ; preds = %59
  br label %61

61:                                               ; preds = %60
  br label %62

62:                                               ; preds = %61, %37
  br label %89

63:                                               ; preds = %32
  %64 = load ptr, ptr %5, align 8, !tbaa !14
  %65 = getelementptr inbounds nuw %struct.H5R_ref_priv_t, ptr %64, i32 0, i32 1
  %66 = load i64, ptr %65, align 8, !tbaa !19
  %67 = call i32 @H5I_dec_ref(i64 noundef %66)
  %68 = icmp slt i32 %67, 0
  br i1 %68, label %69, label %88

69:                                               ; preds = %63
  br label %70

70:                                               ; preds = %69
  br label %71

71:                                               ; preds = %70
  br label %72

72:                                               ; preds = %71
  %73 = load i64, ptr @H5E_REFERENCE_g, align 8, !tbaa !12
  %74 = load i64, ptr @H5E_CANTDEC_g, align 8, !tbaa !12
  %75 = call i32 (ptr, ptr, i32, i64, i64, ptr, ...) @H5E_printf_stack(ptr noundef @.str, ptr noundef @__func__.H5R__set_loc_id, i32 noundef 407, i64 noundef %73, i64 noundef %74, ptr noundef @.str.9)
  br label %76

76:                                               ; preds = %72
  br label %77

77:                                               ; preds = %76
  store i8 1, ptr %10, align 1, !tbaa !3
  %78 = load i8, ptr %10, align 1, !tbaa !3, !range !7, !noundef !8
  %79 = trunc i8 %78 to i1
  %80 = zext i1 %79 to i8
  store i8 %80, ptr %10, align 1, !tbaa !3
  br label %81

81:                                               ; preds = %77
  br label %82

82:                                               ; preds = %81
  br label %83

83:                                               ; preds = %82
  store i32 -1, ptr %9, align 4, !tbaa !16
  br label %129

84:                                               ; No predecessors!
  br label %85

85:                                               ; preds = %84
  br label %86

86:                                               ; preds = %85
  br label %87

87:                                               ; preds = %86
  br label %88

88:                                               ; preds = %87, %63
  br label %89

89:                                               ; preds = %88, %62
  br label %90

90:                                               ; preds = %89, %27
  %91 = load i64, ptr %6, align 8, !tbaa !12
  %92 = load ptr, ptr %5, align 8, !tbaa !14
  %93 = getelementptr inbounds nuw %struct.H5R_ref_priv_t, ptr %92, i32 0, i32 1
  store i64 %91, ptr %93, align 8, !tbaa !19
  %94 = load i8, ptr %7, align 1, !tbaa !3, !range !7, !noundef !8
  %95 = trunc i8 %94 to i1
  br i1 %95, label %96, label %123

96:                                               ; preds = %90
  %97 = load ptr, ptr %5, align 8, !tbaa !14
  %98 = getelementptr inbounds nuw %struct.H5R_ref_priv_t, ptr %97, i32 0, i32 1
  %99 = load i64, ptr %98, align 8, !tbaa !19
  %100 = load i8, ptr %8, align 1, !tbaa !3, !range !7, !noundef !8
  %101 = trunc i8 %100 to i1
  %102 = call i32 @H5I_inc_ref(i64 noundef %99, i1 noundef zeroext %101)
  %103 = icmp slt i32 %102, 0
  br i1 %103, label %104, label %123

104:                                              ; preds = %96
  br label %105

105:                                              ; preds = %104
  br label %106

106:                                              ; preds = %105
  br label %107

107:                                              ; preds = %106
  %108 = load i64, ptr @H5E_REFERENCE_g, align 8, !tbaa !12
  %109 = load i64, ptr @H5E_CANTINC_g, align 8, !tbaa !12
  %110 = call i32 (ptr, ptr, i32, i64, i64, ptr, ...) @H5E_printf_stack(ptr noundef @.str, ptr noundef @__func__.H5R__set_loc_id, i32 noundef 417, i64 noundef %108, i64 noundef %109, ptr noundef @.str.10)
  br label %111

111:                                              ; preds = %107
  br label %112

112:                                              ; preds = %111
  store i8 1, ptr %10, align 1, !tbaa !3
  %113 = load i8, ptr %10, align 1, !tbaa !3, !range !7, !noundef !8
  %114 = trunc i8 %113 to i1
  %115 = zext i1 %114 to i8
  store i8 %115, ptr %10, align 1, !tbaa !3
  br label %116

116:                                              ; preds = %112
  br label %117

117:                                              ; preds = %116
  br label %118

118:                                              ; preds = %117
  store i32 -1, ptr %9, align 4, !tbaa !16
  br label %129

119:                                              ; No predecessors!
  br label %120

120:                                              ; preds = %119
  br label %121

121:                                              ; preds = %120
  br label %122

122:                                              ; preds = %121
  br label %123

123:                                              ; preds = %122, %96, %90
  %124 = load i8, ptr %8, align 1, !tbaa !3, !range !7, !noundef !8
  %125 = trunc i8 %124 to i1
  %126 = load ptr, ptr %5, align 8, !tbaa !14
  %127 = getelementptr inbounds nuw %struct.H5R_ref_priv_t, ptr %126, i32 0, i32 5
  %128 = zext i1 %125 to i8
  store i8 %128, ptr %127, align 2, !tbaa !30
  br label %129

129:                                              ; preds = %123, %118, %83, %57
  br label %130

130:                                              ; preds = %129, %19
  %131 = load i32, ptr %9, align 4, !tbaa !16
  call void @llvm.lifetime.end.p0(i64 1, ptr %10) #9
  call void @llvm.lifetime.end.p0(i64 4, ptr %9) #9
  ret i32 %131
}