; Function Attrs: nounwind uwtable
define range(i32 -1, 1) i32 @H5R__set_loc_id(ptr noundef captures(none) %0, i64 noundef %1, i1 noundef zeroext %2, i1 noundef zeroext %3) local_unnamed_addr #1 {
  %5 = zext i1 %3 to i8
  %6 = load i8, ptr @H5R_init_g, align 1, !tbaa !3, !range !7, !noundef !8
  %7 = trunc nuw i8 %6 to i1
  %8 = load i8, ptr @H5_libterm_g, align 1, !range !7
  %9 = trunc nuw i8 %8 to i1
  %10 = xor i1 %9, true
  %11 = select i1 %7, i1 true, i1 %10
  br i1 %11, label %12, label %43, !prof !9

12:                                               ; preds = %4
  %13 = getelementptr inbounds nuw i8, ptr %0, i64 32
  %14 = load i64, ptr %13, align 8, !tbaa !11
  %.not = icmp eq i64 %14, -1
  br i1 %.not, label %33, label %15

15:                                               ; preds = %12
  %16 = getelementptr inbounds nuw i8, ptr %0, i64 46
  %17 = load i8, ptr %16, align 2, !tbaa !22, !range !7, !noundef !8
  %18 = trunc nuw i8 %17 to i1
  br i1 %18, label %19, label %26

19:                                               ; preds = %15
  %20 = tail call i32 @H5I_dec_app_ref(i64 noundef %14) #15
  %21 = icmp slt i32 %20, 0
  br i1 %21, label %22, label %33

22:                                               ; preds = %19
  %23 = load i64, ptr @H5E_REFERENCE_g, align 8, !tbaa !17
  %24 = load i64, ptr @H5E_CANTDEC_g, align 8, !tbaa !17
  %25 = tail call i32 (ptr, ptr, i32, i64, i64, ptr, ...) @H5E_printf_stack(ptr noundef nonnull @.str, ptr noundef nonnull @__func__.H5R__set_loc_id, i32 noundef 403, i64 noundef %23, i64 noundef %24, ptr noundef nonnull @.str.9) #15
  br label %43

26:                                               ; preds = %15
  %27 = tail call i32 @H5I_dec_ref(i64 noundef %14) #15
  %28 = icmp slt i32 %27, 0
  br i1 %28, label %29, label %33

29:                                               ; preds = %26
  %30 = load i64, ptr @H5E_REFERENCE_g, align 8, !tbaa !17
  %31 = load i64, ptr @H5E_CANTDEC_g, align 8, !tbaa !17
  %32 = tail call i32 (ptr, ptr, i32, i64, i64, ptr, ...) @H5E_printf_stack(ptr noundef nonnull @.str, ptr noundef nonnull @__func__.H5R__set_loc_id, i32 noundef 407, i64 noundef %30, i64 noundef %31, ptr noundef nonnull @.str.9) #15
  br label %43

33:                                               ; preds = %19, %26, %12
  store i64 %1, ptr %13, align 8, !tbaa !11
  br i1 %2, label %34, label %41

34:                                               ; preds = %33
  %35 = tail call i32 @H5I_inc_ref(i64 noundef %1, i1 noundef zeroext %3) #15
  %36 = icmp slt i32 %35, 0
  br i1 %36, label %37, label %41

37:                                               ; preds = %34
  %38 = load i64, ptr @H5E_REFERENCE_g, align 8, !tbaa !17
  %39 = load i64, ptr @H5E_CANTINC_g, align 8, !tbaa !17
  %40 = tail call i32 (ptr, ptr, i32, i64, i64, ptr, ...) @H5E_printf_stack(ptr noundef nonnull @.str, ptr noundef nonnull @__func__.H5R__set_loc_id, i32 noundef 417, i64 noundef %38, i64 noundef %39, ptr noundef nonnull @.str.10) #15
  br label %43

41:                                               ; preds = %34, %33
  %42 = getelementptr inbounds nuw i8, ptr %0, i64 46
  store i8 %5, ptr %42, align 2, !tbaa !22
  br label %43

43:                                               ; preds = %22, %29, %37, %41, %4
  %.0 = phi i32 [ -1, %22 ], [ -1, %37 ], [ 0, %41 ], [ -1, %29 ], [ 0, %4 ]
  ret i32 %.0
}